	.file	"main.c"
	.intel_syntax noprefix
	.text
	.globl	main
	.type	main, @function
main:
.LFB0:
	.cfi_startproc
	lea	ecx, 4[esp]
	.cfi_def_cfa 1, 0
	and	esp, -16
	push	DWORD PTR -4[ecx]
	push	ebp
	mov	ebp, esp
	.cfi_escape 0x10,0x5,0x2,0x75,0
	push	ecx
	.cfi_escape 0xf,0x3,0x75,0x7c,0x6
	sub	esp, 4
	call	__x86.get_pc_thunk.ax
	add	eax, OFFSET FLAT:_GLOBAL_OFFSET_TABLE_
	sub	esp, 12
	push	3
	call	add3
	add	esp, 16
	mov	ecx, DWORD PTR -4[ebp]
	.cfi_def_cfa 1, 0
	leave
	.cfi_restore 5
	lea	esp, -4[ecx]
	.cfi_def_cfa 4, 4
	ret
	.cfi_endproc
.LFE0:
	.size	main, .-main
	.globl	add3
	.type	add3, @function
add3:
.LFB1:
	.cfi_startproc
	push	ebp
	.cfi_def_cfa_offset 8
	.cfi_offset 5, -8
	mov	ebp, esp
	.cfi_def_cfa_register 5
	call	__x86.get_pc_thunk.ax
	add	eax, OFFSET FLAT:_GLOBAL_OFFSET_TABLE_
	mov	eax, DWORD PTR 8[ebp]
	add	eax, 3
	pop	ebp
	.cfi_restore 5
	.cfi_def_cfa 4, 4
	ret
	.cfi_endproc
.LFE1:
	.size	add3, .-add3
	.section	.text.__x86.get_pc_thunk.ax,"axG",@progbits,__x86.get_pc_thunk.ax,comdat
	.globl	__x86.get_pc_thunk.ax
	.hidden	__x86.get_pc_thunk.ax
	.type	__x86.get_pc_thunk.ax, @function
__x86.get_pc_thunk.ax:
.LFB2:
	.cfi_startproc
	mov	eax, DWORD PTR [esp]
	ret
	.cfi_endproc
.LFE2:
	.ident	"GCC: (Ubuntu 13.3.0-6ubuntu2~24.04.1) 13.3.0"
	.section	.note.GNU-stack,"",@progbits
